target datalayout = "e-m:e-p270:32:32-p271:32:32-p272:64:64-i64:64-i128:128-f80:128-n8:16:32:64-S128"
target triple = "x86_64-pc-linux-gnu"

%union.pthread_mutex_t = type { %struct.__pthread_mutex_s }
%struct.__pthread_mutex_s = type { i32, i32, i32, i32, i32, i16, i16, %struct.__pthread_internal_list }
%struct.__pthread_internal_list = type { ptr, ptr }
%union.pthread_cond_t = type { %struct.__pthread_cond_s }
%struct.__pthread_cond_s = type { %union.__atomic_wide_counter, %union.__atomic_wide_counter, [2 x i32], [2 x i32], i32, i32, [2 x i32] }
%union.__atomic_wide_counter = type { i64 }
%struct.slurmdb_cluster_rec = type { ptr, i16, i64, %struct.sockaddr_storage, ptr, i32, i16, ptr, i16, %struct.slurmdb_cluster_fed_t, i32, %union.pthread_mutex_t, ptr, ptr, ptr, i16, ptr, ptr }
%struct.sockaddr_storage = type { i16, [118 x i8], i64 }
%struct.slurmdb_cluster_fed_t = type { ptr, i32, ptr, ptr, ptr, i32, i8, i8 }
%struct.slurm_msg = type { %struct.sockaddr_storage, ptr, i32, i32, i32, i8, i32, i8, i32, ptr, ptr, i32, ptr, ptr, i16, i8, i16, i16, %struct.forward, ptr, %struct.sockaddr_storage, ptr }
%struct.forward = type { %struct.slurm_node_alias_addrs_t, i16, i16, ptr, i32, i16, i16 }
%struct.slurm_node_alias_addrs_t = type { i64, ptr, ptr, i32, ptr }
%struct.agent_queue_t = type { ptr, i32, i64, i32, i16 }

@.str = private unnamed_addr constant [10 x i8] c"fed_mgr.c\00", align 1
@.str.1 = private unnamed_addr constant [29 x i8] c"%s: pthread_mutex_lock(): %m\00", align 1
@.str.2 = private unnamed_addr constant [31 x i8] c"%s: pthread_mutex_unlock(): %m\00", align 1
@agent_cond = internal global %union.pthread_cond_t zeroinitializer, align 8
@.str.73 = private unnamed_addr constant [39 x i8] c"%s:%d %s: pthread_cond_broadcast(): %m\00", align 1
@agent_mutex = internal global %union.pthread_mutex_t zeroinitializer, align 8
@agent_queue_size = internal global i32 0, align 4
@.str.179 = private unnamed_addr constant [31 x i8] c"%s: failed to pack msg_type:%u\00", align 1
@__func__._queue_rpc = private unnamed_addr constant [11 x i8] c"_queue_rpc\00", align 1

; Function Attrs: nounwind uwtable
define internal i32 @_queue_rpc(ptr noundef %0, ptr noundef %1, i32 noundef %2, i1 noundef zeroext %3) #0 {
  %5 = alloca i32, align 4
  %6 = alloca ptr, align 8
  %7 = alloca ptr, align 8
  %8 = alloca i32, align 4
  %9 = alloca i8, align 1
  %10 = alloca ptr, align 8
  %11 = alloca ptr, align 8
  %12 = alloca i32, align 4
  %13 = alloca i32, align 4
  %14 = alloca i32, align 4
  %15 = alloca i32, align 4
  store ptr %0, ptr %6, align 8
  store ptr %1, ptr %7, align 8
  store i32 %2, ptr %8, align 4
  %16 = zext i1 %3 to i8
  store i8 %16, ptr %9, align 1
  call void @llvm.lifetime.start.p0(i64 8, ptr %10) #9
  call void @llvm.lifetime.start.p0(i64 8, ptr %11) #9
  %17 = load ptr, ptr %6, align 8
  %18 = getelementptr inbounds nuw %struct.slurmdb_cluster_rec, ptr %17, i32 0, i32 16
  %19 = load ptr, ptr %18, align 8
  %20 = icmp ne ptr %19, null
  br i1 %20, label %25, label %21

21:                                               ; preds = %4
  %22 = call ptr @list_create(ptr noundef @_ctld_free_list_msg)
  %23 = load ptr, ptr %6, align 8
  %24 = getelementptr inbounds nuw %struct.slurmdb_cluster_rec, ptr %23, i32 0, i32 16
  store ptr %22, ptr %24, align 8
  br label %25

25:                                               ; preds = %21, %4
  %26 = call ptr @init_buf(i32 noundef 1024)
  store ptr %26, ptr %11, align 8
  %27 = load ptr, ptr %7, align 8
  %28 = getelementptr inbounds nuw %struct.slurm_msg, ptr %27, i32 0, i32 16
  %29 = load i16, ptr %28, align 4
  %30 = load ptr, ptr %11, align 8
  call void @pack16(i16 noundef zeroext %29, ptr noundef %30)
  %31 = load ptr, ptr %7, align 8
  %32 = load ptr, ptr %11, align 8
  %33 = call i32 @pack_msg(ptr noundef %31, ptr noundef %32)
  %34 = icmp ne i32 %33, 0
  br i1 %34, label %35, label %49

35:                                               ; preds = %25
  %36 = load ptr, ptr %7, align 8
  %37 = getelementptr inbounds nuw %struct.slurm_msg, ptr %36, i32 0, i32 16
  %38 = load i16, ptr %37, align 4
  %39 = zext i16 %38 to i32
  %40 = call i32 (ptr, ...) @error(ptr noundef @.str.179, ptr noundef @__func__._queue_rpc, i32 noundef %39)
  br label %41

41:                                               ; preds = %35
  %42 = load ptr, ptr %11, align 8
  %43 = icmp ne ptr %42, null
  br i1 %43, label %44, label %46

44:                                               ; preds = %41
  %45 = load ptr, ptr %11, align 8
  call void @free_buf(ptr noundef %45)
  br label %46

46:                                               ; preds = %44, %41
  store ptr null, ptr %11, align 8
  br label %47

47:                                               ; preds = %46
  br label %48

48:                                               ; preds = %47
  store i32 -1, ptr %5, align 4
  store i32 1, ptr %12, align 4
  br label %99

49:                                               ; preds = %25
  %50 = call ptr @slurm_xcalloc(i64 noundef 1, i64 noundef 32, i1 noundef zeroext true, i1 noundef zeroext false, ptr noundef @.str, i32 noundef 487, ptr noundef @__func__._queue_rpc)
  store ptr %50, ptr %10, align 8
  %51 = load ptr, ptr %11, align 8
  %52 = load ptr, ptr %10, align 8
  %53 = getelementptr inbounds nuw %struct.agent_queue_t, ptr %52, i32 0, i32 0
  store ptr %51, ptr %53, align 8
  %54 = load i32, ptr %8, align 4
  %55 = load ptr, ptr %10, align 8
  %56 = getelementptr inbounds nuw %struct.agent_queue_t, ptr %55, i32 0, i32 1
  store i32 %54, ptr %56, align 8
  %57 = load ptr, ptr %7, align 8
  %58 = getelementptr inbounds nuw %struct.slurm_msg, ptr %57, i32 0, i32 16
  %59 = load i16, ptr %58, align 4
  %60 = load ptr, ptr %10, align 8
  %61 = getelementptr inbounds nuw %struct.agent_queue_t, ptr %60, i32 0, i32 4
  store i16 %59, ptr %61, align 4
  %62 = load ptr, ptr %6, align 8
  %63 = getelementptr inbounds nuw %struct.slurmdb_cluster_rec, ptr %62, i32 0, i32 16
  %64 = load ptr, ptr %63, align 8
  %65 = load ptr, ptr %10, align 8
  call void @list_append(ptr noundef %64, ptr noundef %65)
  br label %66

66:                                               ; preds = %49
  call void @llvm.lifetime.start.p0(i64 4, ptr %13) #9
  %67 = call i32 @pthread_mutex_lock(ptr noundef @agent_mutex) #9
  store i32 %67, ptr %13, align 4
  %68 = load i32, ptr %13, align 4
  %69 = icmp ne i32 %68, 0
  br i1 %69, label %70, label %73

70:                                               ; preds = %66
  %71 = load i32, ptr %13, align 4
  %72 = call ptr @__errno_location() #10
  store i32 %71, ptr %72, align 4
  call void (ptr, ...) @fatal_abort(ptr noundef @.str.1, ptr noundef @__func__._queue_rpc) #11
  unreachable

73:                                               ; preds = %66
  call void @llvm.lifetime.end.p0(i64 4, ptr %13) #9
  br label %74

74:                                               ; preds = %73
  br label %75

75:                                               ; preds = %74
  %76 = load i32, ptr @agent_queue_size, align 4
  %77 = add nsw i32 %76, 1
  store i32 %77, ptr @agent_queue_size, align 4
  br label %78

78:                                               ; preds = %75
  call void @llvm.lifetime.start.p0(i64 4, ptr %14) #9
  %79 = call i32 @pthread_cond_broadcast(ptr noundef @agent_cond) #9
  store i32 %79, ptr %14, align 4
  %80 = load i32, ptr %14, align 4
  %81 = icmp ne i32 %80, 0
  br i1 %81, label %82, label %86

82:                                               ; preds = %78
  %83 = load i32, ptr %14, align 4
  %84 = call ptr @__errno_location() #10
  store i32 %83, ptr %84, align 4
  %85 = call i32 (ptr, ...) @error(ptr noundef @.str.73, ptr noundef @.str, i32 noundef 494, ptr noundef @__func__._queue_rpc)
  br label %86

86:                                               ; preds = %82, %78
  call void @llvm.lifetime.end.p0(i64 4, ptr %14) #9
  br label %87

87:                                               ; preds = %86
  br label %88

88:                                               ; preds = %87
  br label %89

89:                                               ; preds = %88
  call void @llvm.lifetime.start.p0(i64 4, ptr %15) #9
  %90 = call i32 @pthread_mutex_unlock(ptr noundef @agent_mutex) #9
  store i32 %90, ptr %15, align 4
  %91 = load i32, ptr %15, align 4
  %92 = icmp ne i32 %91, 0
  br i1 %92, label %93, label %96

93:                                               ; preds = %89
  %94 = load i32, ptr %15, align 4
  %95 = call ptr @__errno_location() #10
  store i32 %94, ptr %95, align 4
  call void (ptr, ...) @fatal_abort(ptr noundef @.str.2, ptr noundef @__func__._queue_rpc) #11
  unreachable

96:                                               ; preds = %89
  call void @llvm.lifetime.end.p0(i64 4, ptr %15) #9
  br label %97

97:                                               ; preds = %96
  br label %98

98:                                               ; preds = %97
  store i32 0, ptr %5, align 4
  store i32 1, ptr %12, align 4
  br label %99

99:                                               ; preds = %98, %48
  call void @llvm.lifetime.end.p0(i64 8, ptr %11) #9
  call void @llvm.lifetime.end.p0(i64 8, ptr %10) #9
  %100 = load i32, ptr %5, align 4
  ret i32 %100
}