; Function Attrs: nounwind uwtable
define internal fastcc range(i32 -1, 1) i32 @_queue_rpc(ptr noundef captures(none) %0, ptr noundef nonnull %1, i32 noundef %2) unnamed_addr #0 {
  %4 = getelementptr inbounds nuw i8, ptr %0, i64 312
  %5 = load ptr, ptr %4, align 8
  %.not = icmp eq ptr %5, null
  br i1 %.not, label %6, label %8

6:                                                ; preds = %3
  %7 = tail call ptr @list_create(ptr noundef nonnull @_ctld_free_list_msg) #16
  store ptr %7, ptr %4, align 8
  br label %8

8:                                                ; preds = %6, %3
  %9 = tail call ptr @init_buf(i32 noundef 1024) #16
  %10 = getelementptr inbounds nuw i8, ptr %1, i64 212
  %11 = load i16, ptr %10, align 4
  tail call void @pack16(i16 noundef zeroext %11, ptr noundef %9) #16
  %12 = tail call i32 @pack_msg(ptr noundef nonnull %1, ptr noundef %9) #16
  %.not27 = icmp eq i32 %12, 0
  br i1 %.not27, label %18, label %13

13:                                               ; preds = %8
  %14 = load i16, ptr %10, align 4
  %15 = zext i16 %14 to i32
  %16 = tail call i32 (ptr, ...) @error(ptr noundef nonnull @.str.179, ptr noundef nonnull @__func__._queue_rpc, i32 noundef %15) #16
  %.not31 = icmp eq ptr %9, null
  br i1 %.not31, label %38, label %17

17:                                               ; preds = %13
  tail call void @free_buf(ptr noundef nonnull %9) #16
  br label %38

18:                                               ; preds = %8
  %19 = tail call ptr @slurm_xcalloc(i64 noundef 1, i64 noundef 32, i1 noundef zeroext true, i1 noundef zeroext false, ptr noundef nonnull @.str, i32 noundef 487, ptr noundef nonnull @__func__._queue_rpc) #16
  store ptr %9, ptr %19, align 8
  %20 = getelementptr inbounds nuw i8, ptr %19, i64 8
  store i32 %2, ptr %20, align 8
  %21 = load i16, ptr %10, align 4
  %22 = getelementptr inbounds nuw i8, ptr %19, i64 28
  store i16 %21, ptr %22, align 4
  %23 = load ptr, ptr %4, align 8
  tail call void @list_append(ptr noundef %23, ptr noundef nonnull %19) #16
  %24 = tail call i32 @pthread_mutex_lock(ptr noundef nonnull @agent_mutex) #16
  %.not28 = icmp eq i32 %24, 0
  br i1 %.not28, label %27, label %25

25:                                               ; preds = %18
  %26 = tail call ptr @__errno_location() #17
  store i32 %24, ptr %26, align 4
  tail call void (ptr, ...) @fatal_abort(ptr noundef nonnull @.str.1, ptr noundef nonnull @__func__._queue_rpc) #18
  unreachable

27:                                               ; preds = %18
  %28 = load i32, ptr @agent_queue_size, align 4
  %29 = add nsw i32 %28, 1
  store i32 %29, ptr @agent_queue_size, align 4
  %30 = tail call i32 @pthread_cond_broadcast(ptr noundef nonnull @agent_cond) #16
  %.not29 = icmp eq i32 %30, 0
  br i1 %.not29, label %34, label %31

31:                                               ; preds = %27
  %32 = tail call ptr @__errno_location() #17
  store i32 %30, ptr %32, align 4
  %33 = tail call i32 (ptr, ...) @error(ptr noundef nonnull @.str.73, ptr noundef nonnull @.str, i32 noundef 494, ptr noundef nonnull @__func__._queue_rpc) #16
  br label %34

34:                                               ; preds = %31, %27
  %35 = tail call i32 @pthread_mutex_unlock(ptr noundef nonnull @agent_mutex) #16
  %.not30 = icmp eq i32 %35, 0
  br i1 %.not30, label %38, label %36

36:                                               ; preds = %34
  %37 = tail call ptr @__errno_location() #17
  store i32 %35, ptr %37, align 4
  tail call void (ptr, ...) @fatal_abort(ptr noundef nonnull @.str.2, ptr noundef nonnull @__func__._queue_rpc) #18
  unreachable

38:                                               ; preds = %34, %13, %17
  %.0 = phi i32 [ -1, %17 ], [ -1, %13 ], [ 0, %34 ]
  ret i32 %.0
}